target datalayout = "e-m:e-p270:32:32-p271:32:32-p272:64:64-i64:64-i128:128-f80:128-n8:16:32:64-S128"
target triple = "x86_64-pc-linux-gnu"

%struct.ossl_item_st = type { i32, ptr }
%struct.ossl_param_st = type { ptr, i32, ptr, i64, i64 }

@format_nameid_map = internal constant [3 x { i32, [4 x i8], ptr }] [{ i32, [4 x i8], ptr } { i32 4, [4 x i8] zeroinitializer, ptr @.str.16 }, { i32, [4 x i8], ptr } { i32 2, [4 x i8] zeroinitializer, ptr @.str.17 }, { i32, [4 x i8], ptr } { i32 6, [4 x i8] zeroinitializer, ptr @.str.18 }], align 16

; Function Attrs: nounwind uwtable
define i32 @ossl_ec_pt_format_name2id(ptr noundef %0) #0 {
  %2 = alloca i32, align 4
  %3 = alloca ptr, align 8
  %4 = alloca i64, align 8
  %5 = alloca i64, align 8
  %6 = alloca i32, align 4
  store ptr %0, ptr %3, align 8, !tbaa !3
  call void @llvm.lifetime.start.p0(i64 8, ptr %4) #3
  call void @llvm.lifetime.start.p0(i64 8, ptr %5) #3
  %7 = load ptr, ptr %3, align 8, !tbaa !3
  %8 = icmp eq ptr %7, null
  br i1 %8, label %9, label %10

9:                                                ; preds = %1
  store i32 4, ptr %2, align 4
  store i32 1, ptr %6, align 4
  br label %33

10:                                               ; preds = %1
  store i64 0, ptr %4, align 8, !tbaa !8
  store i64 3, ptr %5, align 8, !tbaa !8
  br label %11

11:                                               ; preds = %29, %10
  %12 = load i64, ptr %4, align 8, !tbaa !8
  %13 = load i64, ptr %5, align 8, !tbaa !8
  %14 = icmp ult i64 %12, %13
  br i1 %14, label %15, label %32

15:                                               ; preds = %11
  %16 = load ptr, ptr %3, align 8, !tbaa !3
  %17 = load i64, ptr %4, align 8, !tbaa !8
  %18 = getelementptr inbounds nuw [3 x %struct.ossl_item_st], ptr @format_nameid_map, i64 0, i64 %17
  %19 = getelementptr inbounds nuw %struct.ossl_item_st, ptr %18, i32 0, i32 1
  %20 = load ptr, ptr %19, align 8, !tbaa !10
  %21 = call i32 @OPENSSL_strcasecmp(ptr noundef %16, ptr noundef %20)
  %22 = icmp eq i32 %21, 0
  br i1 %22, label %23, label %28

23:                                               ; preds = %15
  %24 = load i64, ptr %4, align 8, !tbaa !8
  %25 = getelementptr inbounds nuw [3 x %struct.ossl_item_st], ptr @format_nameid_map, i64 0, i64 %24
  %26 = getelementptr inbounds nuw %struct.ossl_item_st, ptr %25, i32 0, i32 0
  %27 = load i32, ptr %26, align 16, !tbaa !13
  store i32 %27, ptr %2, align 4
  store i32 1, ptr %6, align 4
  br label %33

28:                                               ; preds = %15
  br label %29

29:                                               ; preds = %28
  %30 = load i64, ptr %4, align 8, !tbaa !8
  %31 = add i64 %30, 1
  store i64 %31, ptr %4, align 8, !tbaa !8
  br label %11, !llvm.loop !21

32:                                               ; preds = %11
  store i32 -1, ptr %2, align 4
  store i32 1, ptr %6, align 4
  br label %33

33:                                               ; preds = %32, %23, %9
  call void @llvm.lifetime.end.p0(i64 8, ptr %5) #3
  call void @llvm.lifetime.end.p0(i64 8, ptr %4) #3
  %34 = load i32, ptr %2, align 4
  ret i32 %34
}

; Function Attrs: nounwind uwtable
define i32 @ossl_ec_pt_format_param2id(ptr noundef %0, ptr noundef %1) #0 {
  %3 = alloca i32, align 4
  %4 = alloca ptr, align 8
  %5 = alloca ptr, align 8
  %6 = alloca ptr, align 8
  %7 = alloca i32, align 4
  %8 = alloca i32, align 4
  %9 = alloca i32, align 4
  store ptr %0, ptr %4, align 8, !tbaa !27
  store ptr %1, ptr %5, align 8, !tbaa !66
  call void @llvm.lifetime.start.p0(i64 8, ptr %6) #3
  store ptr null, ptr %6, align 8, !tbaa !3
  call void @llvm.lifetime.start.p0(i64 4, ptr %7) #3
  store i32 0, ptr %7, align 4, !tbaa !16
  %10 = load ptr, ptr %4, align 8, !tbaa !27
  %11 = getelementptr inbounds nuw %struct.ossl_param_st, ptr %10, i32 0, i32 1
  %12 = load i32, ptr %11, align 8, !tbaa !68
  switch i32 %12, label %23 [
    i32 4, label %13
    i32 6, label %20
  ]

13:                                               ; preds = %2
  %14 = load ptr, ptr %4, align 8, !tbaa !27
  %15 = getelementptr inbounds nuw %struct.ossl_param_st, ptr %14, i32 0, i32 2
  %16 = load ptr, ptr %15, align 8, !tbaa !70
  store ptr %16, ptr %6, align 8, !tbaa !3
  %17 = load ptr, ptr %6, align 8, !tbaa !3
  %18 = icmp ne ptr %17, null
  %19 = zext i1 %18 to i32
  store i32 %19, ptr %7, align 4, !tbaa !16
  br label %23

20:                                               ; preds = %2
  %21 = load ptr, ptr %4, align 8, !tbaa !27
  %22 = call i32 @OSSL_PARAM_get_utf8_ptr(ptr noundef %21, ptr noundef %6)
  store i32 %22, ptr %7, align 4, !tbaa !16
  br label %23

23:                                               ; preds = %2, %20, %13
  %24 = load i32, ptr %7, align 4, !tbaa !16
  %25 = icmp ne i32 %24, 0
  br i1 %25, label %26, label %38

26:                                               ; preds = %23
  call void @llvm.lifetime.start.p0(i64 4, ptr %8) #3
  %27 = load ptr, ptr %6, align 8, !tbaa !3
  %28 = call i32 @ossl_ec_pt_format_name2id(ptr noundef %27)
  store i32 %28, ptr %8, align 4, !tbaa !16
  %29 = load i32, ptr %8, align 4, !tbaa !16
  %30 = icmp sge i32 %29, 0
  br i1 %30, label %31, label %34

31:                                               ; preds = %26
  %32 = load i32, ptr %8, align 4, !tbaa !16
  %33 = load ptr, ptr %5, align 8, !tbaa !66
  store i32 %32, ptr %33, align 4, !tbaa !16
  store i32 1, ptr %3, align 4
  store i32 1, ptr %9, align 4
  br label %35

34:                                               ; preds = %26
  store i32 0, ptr %9, align 4
  br label %35

35:                                               ; preds = %34, %31
  call void @llvm.lifetime.end.p0(i64 4, ptr %8) #3
  %36 = load i32, ptr %9, align 4
  switch i32 %36, label %39 [
    i32 0, label %37
  ]

37:                                               ; preds = %35
  br label %38

38:                                               ; preds = %37, %23
  store i32 0, ptr %3, align 4
  store i32 1, ptr %9, align 4
  br label %39

39:                                               ; preds = %38, %35
  call void @llvm.lifetime.end.p0(i64 4, ptr %7) #3
  call void @llvm.lifetime.end.p0(i64 8, ptr %6) #3
  %40 = load i32, ptr %3, align 4
  ret i32 %40
}