; Function Attrs: nounwind uwtable
define range(i32 0, 2) i32 @ossl_ec_pt_format_param2id(ptr noundef %0, ptr noundef writeonly captures(none) %1) local_unnamed_addr #0 {
  %3 = alloca ptr, align 8
  call void @llvm.lifetime.start.p0(i64 8, ptr nonnull %3) #4
  store ptr null, ptr %3, align 8, !tbaa !26
  %4 = getelementptr inbounds nuw i8, ptr %0, i64 8
  %5 = load i32, ptr %4, align 8, !tbaa !30
  switch i32 %5, label %.critedge [
    i32 4, label %9
    i32 6, label %6
  ]

6:                                                ; preds = %2
  %7 = call i32 @OSSL_PARAM_get_utf8_ptr(ptr noundef nonnull %0, ptr noundef nonnull %3) #4
  %8 = icmp eq i32 %7, 0
  br i1 %8, label %.critedge, label %12

9:                                                ; preds = %2
  %10 = getelementptr inbounds nuw i8, ptr %0, i64 16
  %11 = load ptr, ptr %10, align 8, !tbaa !32
  store ptr %11, ptr %3, align 8, !tbaa !26
  %.not = icmp eq ptr %11, null
  br i1 %.not, label %.critedge, label %.preheader.i.preheader

12:                                               ; preds = %6
  %.pr = load ptr, ptr %3, align 8, !tbaa !26
  %13 = icmp eq ptr %.pr, null
  br i1 %13, label %ossl_ec_pt_format_name2id.exit.thread14, label %.preheader.i.preheader

.preheader.i.preheader:                           ; preds = %9, %12
  %14 = phi ptr [ %.pr, %12 ], [ %11, %9 ]
  br label %.preheader.i

15:                                               ; preds = %.preheader.i
  %16 = add nuw nsw i64 %.079.i, 1
  %exitcond.not.i = icmp eq i64 %16, 3
  br i1 %exitcond.not.i, label %.critedge, label %.preheader.i, !llvm.loop !14

.preheader.i:                                     ; preds = %.preheader.i.preheader, %15
  %.079.i = phi i64 [ %16, %15 ], [ 0, %.preheader.i.preheader ]
  %17 = getelementptr inbounds nuw [3 x %struct.ossl_item_st], ptr @format_nameid_map, i64 0, i64 %.079.i
  %18 = getelementptr inbounds nuw i8, ptr %17, i64 8
  %19 = load ptr, ptr %18, align 8, !tbaa !5
  %20 = call i32 @OPENSSL_strcasecmp(ptr noundef nonnull %14, ptr noundef %19) #4
  %21 = icmp eq i32 %20, 0
  br i1 %21, label %ossl_ec_pt_format_name2id.exit, label %15

ossl_ec_pt_format_name2id.exit:                   ; preds = %.preheader.i
  %22 = load i32, ptr %17, align 16, !tbaa !11
  %23 = icmp slt i32 %22, 0
  br i1 %23, label %.critedge, label %ossl_ec_pt_format_name2id.exit.thread14

ossl_ec_pt_format_name2id.exit.thread14:          ; preds = %12, %ossl_ec_pt_format_name2id.exit
  %.0.i16 = phi i32 [ %22, %ossl_ec_pt_format_name2id.exit ], [ 4, %12 ]
  store i32 %.0.i16, ptr %1, align 4, !tbaa !29
  br label %.critedge

.critedge:                                        ; preds = %15, %6, %9, %2, %ossl_ec_pt_format_name2id.exit, %ossl_ec_pt_format_name2id.exit.thread14
  %.1 = phi i32 [ 1, %ossl_ec_pt_format_name2id.exit.thread14 ], [ 0, %ossl_ec_pt_format_name2id.exit ], [ 0, %2 ], [ 0, %9 ], [ 0, %6 ], [ 0, %15 ]
  call void @llvm.lifetime.end.p0(i64 8, ptr nonnull %3) #4
  ret i32 %.1
}